00000000000195c0 B ASYNC_BUFSIZE
                 U BIO_ctrl@OPENSSL_3.0.0
                 U BIO_f_base64@OPENSSL_3.0.0
                 U BIO_free_all@OPENSSL_3.0.0
                 U BIO_new@OPENSSL_3.0.0
                 U BIO_new_mem_buf@OPENSSL_3.0.0
                 U BIO_push@OPENSSL_3.0.0
                 U BIO_read@OPENSSL_3.0.0
                 U BIO_s_mem@OPENSSL_3.0.0
                 U BIO_write@OPENSSL_3.0.0
00000000000195b8 B CID_size
000000000001958c B CID_size_D
00000000000195bc B CMD_HDR_SIZE
0000000000019580 B CMD_HDR_SIZE_D
0000000000019680 B DB
0000000000019540 B DB_IP
0000000000019558 B DB_database
0000000000019550 B DB_password
0000000000019548 B DB_user
00000000000191b0 V DW.ref.__gxx_personality_v0
                 U ERR_print_errors_fp@OPENSSL_3.0.0
                 U EVP_BytesToKey@OPENSSL_3.0.0
                 U EVP_CIPHER_CTX_free@OPENSSL_3.0.0
                 U EVP_CIPHER_CTX_new@OPENSSL_3.0.0
                 U EVP_DecryptFinal_ex@OPENSSL_3.0.0
                 U EVP_DecryptInit_ex@OPENSSL_3.0.0
                 U EVP_DecryptUpdate@OPENSSL_3.0.0
                 U EVP_DigestSignFinal@OPENSSL_3.0.0
                 U EVP_DigestSignInit@OPENSSL_3.0.0
                 U EVP_EncryptFinal_ex@OPENSSL_3.0.0
                 U EVP_EncryptInit_ex@OPENSSL_3.0.0
                 U EVP_EncryptUpdate@OPENSSL_3.0.0
                 U EVP_MD_CTX_free@OPENSSL_3.0.0
                 U EVP_MD_CTX_new@OPENSSL_3.0.0
                 U EVP_PKEY_assign@OPENSSL_3.0.0
                 U EVP_PKEY_new@OPENSSL_3.0.0
                 U EVP_aes_256_cbc@OPENSSL_3.0.0
                 U EVP_sha1@OPENSSL_3.0.0
                 U EVP_sha256@OPENSSL_3.0.0
00000000000195b0 B Hash_size
0000000000019584 B Hash_size_D
00000000000195c4 B MAX_USER_CNT
                 U PEM_read_bio_RSAPrivateKey@OPENSSL_3.0.0
                 U PEM_read_bio_RSA_PUBKEY@OPENSSL_3.0.0
                 U PEM_write_bio_RSAPrivateKey@OPENSSL_3.0.0
                 U PEM_write_bio_RSA_PUBKEY@OPENSSL_3.0.0
                 U RSA_generate_key@OPENSSL_3.0.0
00000000000195a0 B SERVER_PORT
00000000000195b4 B Signed_Hash_size
0000000000019588 B Signed_Hash_size_D
00000000000187b8 d _DYNAMIC
00000000000189f8 d _GLOBAL_OFFSET_TABLE_
000000000000bb0a t _GLOBAL__sub_I_DB_IP
0000000000011d62 t _GLOBAL__sub_I_SERVER_PORT
0000000000008539 t _GLOBAL__sub_I_for_res_packet
0000000000012f6d t _GLOBAL__sub_I_main
0000000000013000 R _IO_stdin_used
                 w _ITM_deregisterTMCloneTable
                 w _ITM_registerTMCloneTable
                 U _Unwind_Resume@GCC_3.0
00000000000080ef T _Z10cmd_parser7IO_PORTP12HEADERPACKET
00000000000116ba T _Z10initServerv
000000000000ff5e T _Z10makePackethhhj
000000000000a33a T _Z10mkdir_funcNSt7__cxx1112basic_stringIcSt11char_traitsIcESaIcEEE
000000000000e16c T _Z10modInversei
0000000000019620 B _Z10privateKeyB5cxx11
0000000000011980 T _Z10termServerv
0000000000009ca0 T _Z11Read_DB_cfgv
000000000000d975 T _Z11aes_decryptPhiS_S_S_
000000000000d862 T _Z11aes_encryptPhiS_S_S_
000000000001086b T _Z11bind_socketji
0000000000011af0 T _Z11closesocketj
000000000000fe0b T _Z11insert_portii
000000000000e1ff T _Z11join_sharesPii
00000000000105e8 T _Z11recv_binaryP7IO_PORTlPv
000000000000de7b T _Z11seed_randomv
000000000001041a T _Z11send_binaryP7IO_PORTlPv
000000000000dc76 T _Z11signMessageNSt7__cxx1112basic_stringIcSt11char_traitsIcESaIcEEES4_
0000000000019700 B _Z11test_sharesB5cxx11
000000000000db78 T _Z12Base64EncodePKhmPPc
000000000000fb4d T _Z12encrypt_dataPc
000000000000d73d T _Z12genPublicRSAP6rsa_st
00000000000072e5 T _Z12generate_aesP12HEADERPACKETP7IO_PORT
000000000000d52a T _Z12handleErrorsv
000000000000e5a8 T _Z12join_stringsPPci
000000000000df46 T _Z12split_numberiii
000000000000e364 T _Z12split_stringPcii
00000000000106f3 T _Z13create_socketv
000000000000d66a T _Z13genPrivateRSAv
0000000000007f73 T _Z13gen_share_resP12HEADERPACKETP7IO_PORT
0000000000007341 T _Z13share_requestP12HEADERPACKETP7IO_PORT
000000000000faa9 T _Z14get_ano_sharesNSt7__cxx1112basic_stringIcSt11char_traitsIcESaIcEEE
0000000000006844 T _Z14reshape_bufferPvii
00000000000076b4 T _Z14share_responseP12HEADERPACKETP7IO_PORT
000000000000f21f T _Z14test_get_shareB5cxx11v
000000000000ed5a T _Z14test_share_genii
0000000000007f8a T _Z14test_share_reqP12HEADERPACKETP7IO_PORT
00000000000080dc T _Z14test_share_resP12HEADERPACKETP7IO_PORT
0000000000007289 T _Z14verify_requestP12HEADERPACKETP7IO_PORT
000000000000c47e T _Z15Read_server_cfgv
000000000000cc7e T _Z15b_base64_decodeRKNSt7__cxx1112basic_stringIcSt11char_traitsIcESaIcEEE
000000000000caea T _Z15b_base64_encodeRKNSt7__cxx1112basic_stringIcSt11char_traitsIcESaIcEEE
000000000000d5d8 T _Z15createPublicRSANSt7__cxx1112basic_stringIcSt11char_traitsIcESaIcEEE
000000000000f518 T _Z15generate_sharesv
000000000000d252 T _Z15h_base64_decodePKhiPi
000000000000cf4e T _Z15h_base64_encodePKhiPi
00000000000067f9 T _Z15make_res_Packethhhj
00000000000072ce T _Z15prover_responseP12HEADERPACKETP7IO_PORT
0000000000007e75 T _Z15test_gen_sharesP12HEADERPACKETP7IO_PORT
00000000000072a0 T _Z15verify_responseP12HEADERPACKETP7IO_PORT
0000000000006de5 T _Z15video_data_sendP12HEADERPACKETP7IO_PORT
000000000000d546 T _Z16createPrivateRSANSt7__cxx1112basic_stringIcSt11char_traitsIcESaIcEEE
0000000000006985 T _Z16nice_to_meet_youP12HEADERPACKETP7IO_PORT
00000000000072b7 T _Z16verify_to_proverP12HEADERPACKETP7IO_PORT
000000000000fd08 T _Z17insert_public_keyNSt7__cxx1112basic_stringIcSt11char_traitsIcESaIcEEE
000000000000fdd2 T _Z17insert_video_dataPcS_S_
000000000000e552 T _Z18free_string_sharesPPci
00000000000069cb T _Z18public_key_requestP12HEADERPACKETP7IO_PORT
0000000000006cf6 T _Z19public_key_responseP12HEADERPACKETP7IO_PORT
0000000000007243 T _Z19video_data_responseP12HEADERPACKETP7IO_PORT
0000000000007e19 T _Z20encrypt_data_requestP12HEADERPACKETP7IO_PORT
000000000000781b T _Z21another_share_requestP12HEADERPACKETP7IO_PORT
0000000000007e30 T _Z21encrypt_data_responseP12HEADERPACKETP7IO_PORT
0000000000007c30 T _Z22another_share_responseP12HEADERPACKETP7IO_PORT
0000000000007e47 T _Z22decrypt_data_at_serverP12HEADERPACKETP7IO_PORT
0000000000007e02 T _Z22encrypt_data_at_loggerP12HEADERPACKETP7IO_PORT
0000000000007deb T _Z22generate_key_at_loggerP12HEADERPACKETP7IO_PORT
000000000000e93f T _Z22generate_share_stringsPcii
000000000000decb T _Z22modular_exponentiationiii
000000000000ea10 T _Z24trim_trailing_whitespacePc
000000000000f291 T _Z2cpNSt7__cxx1112basic_stringIcSt11char_traitsIcESaIcEEE
000000000000ead5 T _Z33extract_secret_from_share_stringsPKc
000000000000dd65 T _Z3mixmmm
0000000000008439 t _Z41__static_initialization_and_destruction_0ii
000000000000ba82 t _Z41__static_initialization_and_destruction_0ii
0000000000011b0c t _Z41__static_initialization_and_destruction_0ii
0000000000012f17 t _Z41__static_initialization_and_destruction_0ii
000000000000e095 T _Z4gcdDii
0000000000007e5e T _Z4testP12HEADERPACKETP7IO_PORT
0000000000019500 B _Z5s_dirB5cxx11
000000000000f2cc T _Z6getCIDB5cxx11v
000000000000da81 T _Z7RSASignP6rsa_stPKhmPPhPm
000000000000690d T _Z7hi_i_amP12HEADERPACKETP7IO_PORT
000000000000d7cc T _Z7initAESRKNSt7__cxx1112basic_stringIcSt11char_traitsIcESaIcEEEPhS7_S7_
00000000000195e0 B _Z8passwordB5cxx11
000000000000fedc T _Z8pop_porti
000000000000fa0d T _Z9get_shareNSt7__cxx1112basic_stringIcSt11char_traitsIcESaIcEEE
0000000000019560 B _Z9image_dirB5cxx11
0000000000019640 B _Z9publicKeyB5cxx11
000000000000ecaf T _Z9strtok_rrPcPKcPS_
0000000000019740 b _ZGVZ15b_base64_decodeRKNSt7__cxx1112basic_stringIcSt11char_traitsIcESaIcEEEE1b
0000000000019201 d _ZL10base64_pad
00000000000191c0 d _ZL12base64_table
000000000000c473 t _ZL18__gthread_active_pv
00000000000109bb t _ZL19ClientServiceThreadPv
0000000000011dbc t _ZL22__gthread_mutex_unlockP15pthread_mutex_t
0000000000011d8d t _ZL23__gthread_mutex_trylockP15pthread_mutex_t
0000000000019204 d _ZL5prime
00000000000101ff t _ZL6__recvP7IO_PORTPvi
000000000000ffa9 t _ZL6__sendP7IO_PORTPvi
00000000000110d4 t _ZL9listenThdPv
000000000000a6e8 T _ZN13bout_database11insert_dataENSt7__cxx1112basic_stringIcSt11char_traitsIcESaIcEEE
000000000000b88e T _ZN13bout_database11print_queryEv
000000000000a58a T _ZN13bout_database12initDatabaseEP7db_user
000000000000b56c T _ZN13bout_database14get_ano_sharesENSt7__cxx1112basic_stringIcSt11char_traitsIcESaIcEEEi
000000000000a72a T _ZN13bout_database15select_databaseEPcRNSt7__cxx1112basic_stringIcSt11char_traitsIcESaIcEEES7_S7_
000000000000adc8 T _ZN13bout_database15update_databaseENSt7__cxx1112basic_stringIcSt11char_traitsIcESaIcEEES5_S5_
000000000000b08e T _ZN13bout_database17get_latest_key_IDB5cxx11Ev
000000000000a822 T _ZN13bout_database17insert_video_dataEPcS0_S0_
000000000000ab26 T _ZN13bout_database18insert_pk_databaseENSt7__cxx1112basic_stringIcSt11char_traitsIcESaIcEEES5_
000000000000a660 T _ZN13bout_database19mysql_perform_queryEP5MYSQLPc
000000000000a5d8 T _ZN13bout_database22mysql_connection_setupE7db_user
000000000000b1c4 T _ZN13bout_database9get_shareENSt7__cxx1112basic_stringIcSt11char_traitsIcESaIcEEE
000000000000a3f0 T _ZN13bout_databaseC1Ei
000000000000a3f0 T _ZN13bout_databaseC2Ei
000000000000a546 T _ZN13bout_databaseD1Ev
000000000000a546 T _ZN13bout_databaseD2Ev
                 U _ZN4Json15parseFromStreamERKNS_10CharReader7FactoryERSiPNS_5ValueEPNSt7__cxx1112basic_stringIcSt11char_traitsIcESaIcEEE
                 U _ZN4Json17CharReaderBuilderC1Ev
                 U _ZN4Json17CharReaderBuilderD1Ev
                 U _ZN4Json17CharReaderBuilderixERKNSt7__cxx1112basic_stringIcSt11char_traitsIcESaIcEEE
                 U _ZN4Json5ValueC1ENS_9ValueTypeE
                 U _ZN4Json5ValueC1Eb
                 U _ZN4Json5ValueD1Ev
                 U _ZN4Json5ValueaSEOS0_
                 U _ZN4Json5ValueixEPKc
000000000001300d r _ZN6__pstl9execution2v1L3parE
00000000000132c5 r _ZN6__pstl9execution2v1L3parE
00000000000136b5 r _ZN6__pstl9execution2v1L3parE
0000000000013c19 r _ZN6__pstl9execution2v1L3parE
000000000001300c r _ZN6__pstl9execution2v1L3seqE
00000000000132c4 r _ZN6__pstl9execution2v1L3seqE
00000000000136b4 r _ZN6__pstl9execution2v1L3seqE
0000000000013c18 r _ZN6__pstl9execution2v1L3seqE
000000000001300f r _ZN6__pstl9execution2v1L5unseqE
00000000000132c7 r _ZN6__pstl9execution2v1L5unseqE
00000000000136b7 r _ZN6__pstl9execution2v1L5unseqE
0000000000013c1b r _ZN6__pstl9execution2v1L5unseqE
000000000001300e r _ZN6__pstl9execution2v1L9par_unseqE
00000000000132c6 r _ZN6__pstl9execution2v1L9par_unseqE
00000000000136b6 r _ZN6__pstl9execution2v1L9par_unseqE
0000000000013c1a r _ZN6__pstl9execution2v1L9par_unseqE
0000000000008777 W _ZN9__gnu_cxx11char_traitsIcE2eqERKcS3_
000000000000879c W _ZN9__gnu_cxx11char_traitsIcE6lengthEPKc
00000000000096f8 W _ZN9__gnu_cxx13new_allocatorINSt7__cxx1112basic_stringIcSt11char_traitsIcESaIcEEEE10deallocateEPS6_m
00000000000098de W _ZN9__gnu_cxx13new_allocatorINSt7__cxx1112basic_stringIcSt11char_traitsIcESaIcEEEE7destroyIS6_EEvPT_
00000000000099ec W _ZN9__gnu_cxx13new_allocatorINSt7__cxx1112basic_stringIcSt11char_traitsIcESaIcEEEE8allocateEmPKv
00000000000094b8 W _ZN9__gnu_cxx13new_allocatorINSt7__cxx1112basic_stringIcSt11char_traitsIcESaIcEEEE9constructIS6_JRKS6_EEEvPT_DpOT0_
0000000000009c54 W _ZN9__gnu_cxx13new_allocatorINSt7__cxx1112basic_stringIcSt11char_traitsIcESaIcEEEE9constructIS6_JS6_EEEvPT_DpOT0_
0000000000009920 W _ZN9__gnu_cxx13new_allocatorINSt7__cxx1112basic_stringIcSt11char_traitsIcESaIcEEEEC1ERKS7_
0000000000009336 W _ZN9__gnu_cxx13new_allocatorINSt7__cxx1112basic_stringIcSt11char_traitsIcESaIcEEEEC1Ev
0000000000009920 W _ZN9__gnu_cxx13new_allocatorINSt7__cxx1112basic_stringIcSt11char_traitsIcESaIcEEEEC2ERKS7_
0000000000009336 W _ZN9__gnu_cxx13new_allocatorINSt7__cxx1112basic_stringIcSt11char_traitsIcESaIcEEEEC2Ev
0000000000008ed6 W _ZN9__gnu_cxx13new_allocatorINSt7__cxx1112basic_stringIcSt11char_traitsIcESaIcEEEED1Ev
0000000000008ed6 W _ZN9__gnu_cxx13new_allocatorINSt7__cxx1112basic_stringIcSt11char_traitsIcESaIcEEEED2Ev
0000000000012c44 W _ZN9__gnu_cxx13new_allocatorIiE10deallocateEPim
0000000000012d0c W _ZN9__gnu_cxx13new_allocatorIiE8allocateEmPKv
0000000000012ad4 W _ZN9__gnu_cxx13new_allocatorIiEC1ERKS1_
00000000000123a0 W _ZN9__gnu_cxx13new_allocatorIiEC1Ev
0000000000012ad4 W _ZN9__gnu_cxx13new_allocatorIiEC2ERKS1_
00000000000123a0 W _ZN9__gnu_cxx13new_allocatorIiEC2Ev
00000000000123b0 W _ZN9__gnu_cxx13new_allocatorIiED1Ev
00000000000123b0 W _ZN9__gnu_cxx13new_allocatorIiED2Ev
000000000000c0c5 W _ZN9__gnu_cxx14__alloc_traitsISaIcEcE17_S_select_on_copyERKS1_
00000000000092f7 W _ZN9__gnu_cxx17__is_null_pointerIKcEEbPT_
0000000000011f22 W _ZN9__gnu_cxx17__normal_iteratorIPKcNSt7__cxx1112basic_stringIcSt11char_traitsIcESaIcEEEEppEv
000000000000903a W _ZN9__gnu_cxx17__normal_iteratorIPNSt7__cxx1112basic_stringIcSt11char_traitsIcESaIcEEESt6vectorIS6_SaIS6_EEEC1ERKS7_
000000000000903a W _ZN9__gnu_cxx17__normal_iteratorIPNSt7__cxx1112basic_stringIcSt11char_traitsIcESaIcEEESt6vectorIS6_SaIS6_EEEC2ERKS7_
0000000000008bb0 W _ZN9__gnu_cxx17__normal_iteratorIPNSt7__cxx1112basic_stringIcSt11char_traitsIcESaIcEEESt6vectorIS6_SaIS6_EEEppEi
0000000000013008 r _ZN9__gnu_cxxL21__default_lock_policyE
00000000000132c0 r _ZN9__gnu_cxxL21__default_lock_policyE
00000000000136b0 r _ZN9__gnu_cxxL21__default_lock_policyE
0000000000013c14 r _ZN9__gnu_cxxL21__default_lock_policyE
000000000000961d W _ZN9__gnu_cxxmiIPNSt7__cxx1112basic_stringIcSt11char_traitsIcESaIcEEESt6vectorIS6_SaIS6_EEEENS_17__normal_iteratorIT_T0_E15difference_typeERKSE_SH_
0000000000011ee3 W _ZN9__gnu_cxxneIPKcNSt7__cxx1112basic_stringIcSt11char_traitsIcESaIcEEEEEbRKNS_17__normal_iteratorIT_T0_EESE_
0000000000008b70 W _ZN9__gnu_cxxneIPNSt7__cxx1112basic_stringIcSt11char_traitsIcESaIcEEESt6vectorIS6_SaIS6_EEEEbRKNS_17__normal_iteratorIT_T0_EESG_
                 U _ZNK4Json5Value5asIntEv
                 U _ZNK4Json5Value8asStringB5cxx11Ev
00000000000099d4 W _ZNK9__gnu_cxx13new_allocatorINSt7__cxx1112basic_stringIcSt11char_traitsIcESaIcEEEE11_M_max_sizeEv
0000000000009b8c W _ZNK9__gnu_cxx13new_allocatorINSt7__cxx1112basic_stringIcSt11char_traitsIcESaIcEEEE8max_sizeEv
0000000000012cf4 W _ZNK9__gnu_cxx13new_allocatorIiE11_M_max_sizeEv
0000000000012bf8 W _ZNK9__gnu_cxx13new_allocatorIiE8max_sizeEv
000000000001238e W _ZNK9__gnu_cxx17__normal_iteratorIPKcNSt7__cxx1112basic_stringIcSt11char_traitsIcESaIcEEEE4baseEv
0000000000011f46 W _ZNK9__gnu_cxx17__normal_iteratorIPKcNSt7__cxx1112basic_stringIcSt11char_traitsIcESaIcEEEEdeEv
000000000000905c W _ZNK9__gnu_cxx17__normal_iteratorIPNSt7__cxx1112basic_stringIcSt11char_traitsIcESaIcEEESt6vectorIS6_SaIS6_EEE4baseEv
0000000000008c16 W _ZNK9__gnu_cxx17__normal_iteratorIPNSt7__cxx1112basic_stringIcSt11char_traitsIcESaIcEEESt6vectorIS6_SaIS6_EEEdeEv
000000000000c40a W _ZNK9__gnu_cxx17__normal_iteratorIPNSt7__cxx1112basic_stringIcSt11char_traitsIcESaIcEEESt6vectorIS6_SaIS6_EEEmiEl
00000000000093a2 W _ZNKSt12_Vector_baseINSt7__cxx1112basic_stringIcSt11char_traitsIcESaIcEEESaIS5_EE13get_allocatorEv
000000000000976a W _ZNKSt12_Vector_baseINSt7__cxx1112basic_stringIcSt11char_traitsIcESaIcEEESaIS5_EE19_M_get_Tp_allocatorEv
0000000000011e02 W _ZNKSt6chrono8durationIlSt5ratioILl1ELl1000000000EEE5countEv
0000000000011ece W _ZNKSt6chrono8durationIlSt5ratioILl1ELl1EEE5countEv
000000000000952e W _ZNKSt6vectorINSt7__cxx1112basic_stringIcSt11char_traitsIcESaIcEEESaIS5_EE12_M_check_lenEmPKc
0000000000008c50 W _ZNKSt6vectorINSt7__cxx1112basic_stringIcSt11char_traitsIcESaIcEEESaIS5_EE4sizeEv
0000000000009824 W _ZNKSt6vectorINSt7__cxx1112basic_stringIcSt11char_traitsIcESaIcEEESaIS5_EE8max_sizeEv
                 U _ZNKSt7__cxx1112basic_stringIcSt11char_traitsIcESaIcEE13get_allocatorEv@GLIBCXX_3.4.21
                 U _ZNKSt7__cxx1112basic_stringIcSt11char_traitsIcESaIcEE3endEv@GLIBCXX_3.4.21
                 U _ZNKSt7__cxx1112basic_stringIcSt11char_traitsIcESaIcEE4sizeEv@GLIBCXX_3.4.21
                 U _ZNKSt7__cxx1112basic_stringIcSt11char_traitsIcESaIcEE5beginEv@GLIBCXX_3.4.21
                 U _ZNKSt7__cxx1112basic_stringIcSt11char_traitsIcESaIcEE5c_strEv@GLIBCXX_3.4.21
                 U _ZNKSt7__cxx1112basic_stringIcSt11char_traitsIcESaIcEE6lengthEv@GLIBCXX_3.4.21
                 U _ZNKSt7__cxx1112basic_stringIcSt11char_traitsIcESaIcEE6substrEmm@GLIBCXX_3.4.21
                 U _ZNKSt7__cxx1112basic_stringIcSt11char_traitsIcESaIcEE7_M_dataEv@GLIBCXX_3.4.21
                 U _ZNKSt7__cxx1112basic_stringIcSt11char_traitsIcESaIcEE8capacityEv@GLIBCXX_3.4.21
                 U _ZNKSt7__cxx1112basic_stringIcSt11char_traitsIcESaIcEEixEm@GLIBCXX_3.4.21
                 U _ZNKSt7__cxx1119basic_ostringstreamIcSt11char_traitsIcESaIcEE3strEv@GLIBCXX_3.4.21
                 U _ZNKSt9basic_iosIcSt11char_traitsIcEE4failEv@GLIBCXX_3.4
                 U _ZNKSt9basic_iosIcSt11char_traitsIcEEcvbEv@GLIBCXX_3.4.21
000000000000977c W _ZNSaINSt7__cxx1112basic_stringIcSt11char_traitsIcESaIcEEEEC1ERKS5_
0000000000008e84 W _ZNSaINSt7__cxx1112basic_stringIcSt11char_traitsIcESaIcEEEEC1Ev
000000000000977c W _ZNSaINSt7__cxx1112basic_stringIcSt11char_traitsIcESaIcEEEEC2ERKS5_
0000000000008e84 W _ZNSaINSt7__cxx1112basic_stringIcSt11char_traitsIcESaIcEEEEC2Ev
00000000000089de W _ZNSaINSt7__cxx1112basic_stringIcSt11char_traitsIcESaIcEEEED1Ev
00000000000089de W _ZNSaINSt7__cxx1112basic_stringIcSt11char_traitsIcESaIcEEEED2Ev
                 U _ZNSaIcEC1ERKS_@GLIBCXX_3.4
                 U _ZNSaIcEC1Ev@GLIBCXX_3.4
                 U _ZNSaIcED1Ev@GLIBCXX_3.4
                 U _ZNSaIcED2Ev@GLIBCXX_3.4
00000000000128dc W _ZNSaIiEC1ERKS_
0000000000011f5c W _ZNSaIiEC1Ev
00000000000128dc W _ZNSaIiEC2ERKS_
0000000000011f5c W _ZNSaIiEC2Ev
0000000000011f7c W _ZNSaIiED1Ev
0000000000011f7c W _ZNSaIiED2Ev
                 U _ZNSolsEPFRSoS_E@GLIBCXX_3.4
                 U _ZNSolsEPFRSt8ios_baseS0_E@GLIBCXX_3.4
                 U _ZNSolsEi@GLIBCXX_3.4
                 U _ZNSolsEj@GLIBCXX_3.4
                 U _ZNSolsEt@GLIBCXX_3.4
000000000000857b W _ZNSt11char_traitsIcE6lengthEPKc
00000000000122a5 W _ZNSt11this_thread9sleep_forIlSt5ratioILl1ELl1EEEEvRKNSt6chrono8durationIT_T0_EE
000000000000972c W _ZNSt12_Destroy_auxILb0EE9__destroyIPNSt7__cxx1112basic_stringIcSt11char_traitsIcESaIcEEEEEvT_S9_
0000000000012bb8 W _ZNSt12_Destroy_auxILb1EE9__destroyIPiEEvT_S3_
0000000000009660 W _ZNSt12_Vector_baseINSt7__cxx1112basic_stringIcSt11char_traitsIcESaIcEEESaIS5_EE11_M_allocateEm
0000000000009934 W _ZNSt12_Vector_baseINSt7__cxx1112basic_stringIcSt11char_traitsIcESaIcEEESaIS5_EE12_Vector_implC1ERKS6_
00000000000089b2 W _ZNSt12_Vector_baseINSt7__cxx1112basic_stringIcSt11char_traitsIcESaIcEEESaIS5_EE12_Vector_implC1Ev
0000000000009934 W _ZNSt12_Vector_baseINSt7__cxx1112basic_stringIcSt11char_traitsIcESaIcEEESaIS5_EE12_Vector_implC2ERKS6_
00000000000089b2 W _ZNSt12_Vector_baseINSt7__cxx1112basic_stringIcSt11char_traitsIcESaIcEEESaIS5_EE12_Vector_implC2Ev
0000000000008718 W _ZNSt12_Vector_baseINSt7__cxx1112basic_stringIcSt11char_traitsIcESaIcEEESaIS5_EE12_Vector_implD1Ev
0000000000008718 W _ZNSt12_Vector_baseINSt7__cxx1112basic_stringIcSt11char_traitsIcESaIcEEESaIS5_EE12_Vector_implD2Ev
0000000000008ee6 W _ZNSt12_Vector_baseINSt7__cxx1112basic_stringIcSt11char_traitsIcESaIcEEESaIS5_EE13_M_deallocateEPS5_m
0000000000012a2e W _ZNSt12_Vector_baseINSt7__cxx1112basic_stringIcSt11char_traitsIcESaIcEEESaIS5_EE17_M_create_storageEm
00000000000097d0 W _ZNSt12_Vector_baseINSt7__cxx1112basic_stringIcSt11char_traitsIcESaIcEEESaIS5_EE17_Vector_impl_data12_M_copy_dataERKS8_
0000000000009404 W _ZNSt12_Vector_baseINSt7__cxx1112basic_stringIcSt11char_traitsIcESaIcEEESaIS5_EE17_Vector_impl_data12_M_swap_dataERS8_
0000000000008ea4 W _ZNSt12_Vector_baseINSt7__cxx1112basic_stringIcSt11char_traitsIcESaIcEEESaIS5_EE17_Vector_impl_dataC1Ev
0000000000008ea4 W _ZNSt12_Vector_baseINSt7__cxx1112basic_stringIcSt11char_traitsIcESaIcEEESaIS5_EE17_Vector_impl_dataC2Ev
0000000000008f20 W _ZNSt12_Vector_baseINSt7__cxx1112basic_stringIcSt11char_traitsIcESaIcEEESaIS5_EE19_M_get_Tp_allocatorEv
00000000000097a6 W _ZNSt12_Vector_baseINSt7__cxx1112basic_stringIcSt11char_traitsIcESaIcEEESaIS5_EEC1ERKS6_
0000000000012630 W _ZNSt12_Vector_baseINSt7__cxx1112basic_stringIcSt11char_traitsIcESaIcEEESaIS5_EEC1EmRKS6_
0000000000008738 W _ZNSt12_Vector_baseINSt7__cxx1112basic_stringIcSt11char_traitsIcESaIcEEESaIS5_EEC1Ev
00000000000097a6 W _ZNSt12_Vector_baseINSt7__cxx1112basic_stringIcSt11char_traitsIcESaIcEEESaIS5_EEC2ERKS6_
0000000000012630 W _ZNSt12_Vector_baseINSt7__cxx1112basic_stringIcSt11char_traitsIcESaIcEEESaIS5_EEC2EmRKS6_
0000000000008738 W _ZNSt12_Vector_baseINSt7__cxx1112basic_stringIcSt11char_traitsIcESaIcEEESaIS5_EEC2Ev
00000000000089fe W _ZNSt12_Vector_baseINSt7__cxx1112basic_stringIcSt11char_traitsIcESaIcEEESaIS5_EED1Ev
00000000000089fe W _ZNSt12_Vector_baseINSt7__cxx1112basic_stringIcSt11char_traitsIcESaIcEEESaIS5_EED2Ev
0000000000012b1a W _ZNSt12_Vector_baseIiSaIiEE11_M_allocateEm
0000000000012906 W _ZNSt12_Vector_baseIiSaIiEE12_Vector_implC1ERKS0_
0000000000012906 W _ZNSt12_Vector_baseIiSaIiEE12_Vector_implC2ERKS0_
0000000000012446 W _ZNSt12_Vector_baseIiSaIiEE12_Vector_implD1Ev
0000000000012446 W _ZNSt12_Vector_baseIiSaIiEE12_Vector_implD2Ev
0000000000012996 W _ZNSt12_Vector_baseIiSaIiEE13_M_deallocateEPim
000000000001293c W _ZNSt12_Vector_baseIiSaIiEE17_M_create_storageEm
0000000000012ae8 W _ZNSt12_Vector_baseIiSaIiEE17_Vector_impl_dataC1Ev
0000000000012ae8 W _ZNSt12_Vector_baseIiSaIiEE17_Vector_impl_dataC2Ev
0000000000012568 W _ZNSt12_Vector_baseIiSaIiEE19_M_get_Tp_allocatorEv
0000000000012466 W _ZNSt12_Vector_baseIiSaIiEEC1EmRKS0_
0000000000012466 W _ZNSt12_Vector_baseIiSaIiEEC2EmRKS0_
00000000000124cc W _ZNSt12_Vector_baseIiSaIiEED1Ev
00000000000124cc W _ZNSt12_Vector_baseIiSaIiEED2Ev
                 U _ZNSt14basic_ifstreamIcSt11char_traitsIcEEC1EPKcSt13_Ios_Openmode@GLIBCXX_3.4
                 U _ZNSt14basic_ifstreamIcSt11char_traitsIcEED1Ev@GLIBCXX_3.4
                 U _ZNSt14basic_ofstreamIcSt11char_traitsIcEEC1EPKcSt13_Ios_Openmode@GLIBCXX_3.4
                 U _ZNSt14basic_ofstreamIcSt11char_traitsIcEED1Ev@GLIBCXX_3.4
0000000000009345 W _ZNSt16allocator_traitsISaINSt7__cxx1112basic_stringIcSt11char_traitsIcESaIcEEEEE10deallocateERS6_PS5_m
00000000000096cd W _ZNSt16allocator_traitsISaINSt7__cxx1112basic_stringIcSt11char_traitsIcESaIcEEEEE7destroyIS5_EEvRS6_PT_
0000000000009879 W _ZNSt16allocator_traitsISaINSt7__cxx1112basic_stringIcSt11char_traitsIcESaIcEEEEE8allocateERS6_m
0000000000009ab8 W _ZNSt16allocator_traitsISaINSt7__cxx1112basic_stringIcSt11char_traitsIcESaIcEEEEE8max_sizeERKS6_
000000000000906e W _ZNSt16allocator_traitsISaINSt7__cxx1112basic_stringIcSt11char_traitsIcESaIcEEEEE9constructIS5_JRKS5_EEEvRS6_PT_DpOT0_
0000000000009c05 W _ZNSt16allocator_traitsISaINSt7__cxx1112basic_stringIcSt11char_traitsIcESaIcEEEEE9constructIS5_JS5_EEEvRS6_PT_DpOT0_
000000000000c1be W _ZNSt16allocator_traitsISaIcEE37select_on_container_copy_constructionERKS0_
0000000000012b51 W _ZNSt16allocator_traitsISaIiEE10deallocateERS0_Pim
0000000000012c16 W _ZNSt16allocator_traitsISaIiEE8allocateERS0_m
0000000000012ab5 W _ZNSt16allocator_traitsISaIiEE8max_sizeERKS0_
0000000000012c79 W _ZNSt22__uninitialized_fill_nILb1EE15__uninit_fill_nIPimiEET_S3_T0_RKT1_
0000000000012caa W _ZNSt27__uninitialized_default_n_1ILb0EE18__uninit_default_nIPNSt7__cxx1112basic_stringIcSt11char_traitsIcESaIcEEEmEET_S9_T0_
0000000000011e8e W _ZNSt5mutex6unlockEv
0000000000011e6a W _ZNSt5mutex8try_lockEv
00000000000121f4 W _ZNSt6chrono13duration_castINS_8durationIlSt5ratioILl1ELl1000000000EEEElS2_ILl1ELl1EEEENSt9enable_ifIXsrNS_13__is_durationIT_EE5valueES8_E4typeERKNS1_IT0_T1_EE
00000000000121d6 W _ZNSt6chrono13duration_castINS_8durationIlSt5ratioILl1ELl1EEEElS3_EENSt9enable_ifIXsrNS_13__is_durationIT_EE5valueES7_E4typeERKNS1_IT0_T1_EE
0000000000011e39 W _ZNSt6chrono15duration_valuesIlE4zeroEv
000000000001280f W _ZNSt6chrono20__duration_cast_implINS_8durationIlSt5ratioILl1ELl1000000000EEEES2_ILl1000000000ELl1EElLb0ELb1EE6__castIlS2_ILl1ELl1EEEES4_RKNS1_IT_T0_EE
00000000000127b3 W _ZNSt6chrono20__duration_cast_implINS_8durationIlSt5ratioILl1ELl1EEEES3_lLb1ELb1EE6__castIlS3_EES4_RKNS1_IT_T0_EE
0000000000011e18 W _ZNSt6chrono8durationIlSt5ratioILl1ELl1000000000EEEC1IlvEERKT_
0000000000012185 W _ZNSt6chrono8durationIlSt5ratioILl1ELl1EEE4zeroEv
0000000000012136 W _ZNSt6chrono8durationIlSt5ratioILl1ELl1EEEC1IivEERKT_
0000000000011e48 W _ZNSt6chrono8durationIlSt5ratioILl1ELl1EEEC1IlvEERKT_
0000000000012136 W _ZNSt6chrono8durationIlSt5ratioILl1ELl1EEEC2IivEERKT_
0000000000012159 W _ZNSt6chronoleIlSt5ratioILl1ELl1EElS2_EEbRKNS_8durationIT_T0_EERKNS3_IT1_T2_EE
000000000001273e W _ZNSt6chronoltIlSt5ratioILl1ELl1EElS2_EEbRKNS_8durationIT_T0_EERKNS3_IT1_T2_EE
0000000000012212 W _ZNSt6chronomiIlSt5ratioILl1ELl1EElS2_EENSt11common_typeIJNS_8durationIT_T0_EENS4_IT1_T2_EEEE4typeERKS7_RKSA_
000000000000996a W _ZNSt6vectorINSt7__cxx1112basic_stringIcSt11char_traitsIcESaIcEEESaIS5_EE11_S_max_sizeERKS6_
0000000000009697 W _ZNSt6vectorINSt7__cxx1112basic_stringIcSt11char_traitsIcESaIcEEESaIS5_EE11_S_relocateEPS5_S8_S8_RS6_
000000000000c116 W _ZNSt6vectorINSt7__cxx1112basic_stringIcSt11char_traitsIcESaIcEEESaIS5_EE12emplace_backIJS5_EEERS5_DpOT_
0000000000008f72 W _ZNSt6vectorINSt7__cxx1112basic_stringIcSt11char_traitsIcESaIcEEESaIS5_EE14_M_move_assignEOS7_St17integral_constantIbLb1EE
00000000000098a7 W _ZNSt6vectorINSt7__cxx1112basic_stringIcSt11char_traitsIcESaIcEEESaIS5_EE14_S_do_relocateEPS5_S8_S8_RS6_St17integral_constantIbLb1EE
00000000000126da W _ZNSt6vectorINSt7__cxx1112basic_stringIcSt11char_traitsIcESaIcEEESaIS5_EE15_M_erase_at_endEPS5_
00000000000090ac W _ZNSt6vectorINSt7__cxx1112basic_stringIcSt11char_traitsIcESaIcEEESaIS5_EE17_M_realloc_insertIJRKS5_EEEvN9__gnu_cxx17__normal_iteratorIPS5_S7_EEDpOT_
000000000000c1ec W _ZNSt6vectorINSt7__cxx1112basic_stringIcSt11char_traitsIcESaIcEEESaIS5_EE17_M_realloc_insertIJS5_EEEvN9__gnu_cxx17__normal_iteratorIPS5_S7_EEDpOT_
00000000000125a8 W _ZNSt6vectorINSt7__cxx1112basic_stringIcSt11char_traitsIcESaIcEEESaIS5_EE17_S_check_init_lenEmRKS6_
0000000000012696 W _ZNSt6vectorINSt7__cxx1112basic_stringIcSt11char_traitsIcESaIcEEESaIS5_EE21_M_default_initializeEm
0000000000008b20 W _ZNSt6vectorINSt7__cxx1112basic_stringIcSt11char_traitsIcESaIcEEESaIS5_EE3endEv
000000000000c3a4 W _ZNSt6vectorINSt7__cxx1112basic_stringIcSt11char_traitsIcESaIcEEESaIS5_EE4backEv
0000000000008ad4 W _ZNSt6vectorINSt7__cxx1112basic_stringIcSt11char_traitsIcESaIcEEESaIS5_EE5beginEv
000000000001210c W _ZNSt6vectorINSt7__cxx1112basic_stringIcSt11char_traitsIcESaIcEEESaIS5_EE5clearEv
000000000000c090 W _ZNSt6vectorINSt7__cxx1112basic_stringIcSt11char_traitsIcESaIcEEESaIS5_EE9push_backEOS5_
0000000000008c78 W _ZNSt6vectorINSt7__cxx1112basic_stringIcSt11char_traitsIcESaIcEEESaIS5_EE9push_backERKS5_
00000000000093da W _ZNSt6vectorINSt7__cxx1112basic_stringIcSt11char_traitsIcESaIcEEESaIS5_EEC1ERKS6_
000000000001208e W _ZNSt6vectorINSt7__cxx1112basic_stringIcSt11char_traitsIcESaIcEEESaIS5_EEC1EmRKS6_
0000000000008758 W _ZNSt6vectorINSt7__cxx1112basic_stringIcSt11char_traitsIcESaIcEEESaIS5_EEC1Ev
00000000000093da W _ZNSt6vectorINSt7__cxx1112basic_stringIcSt11char_traitsIcESaIcEEESaIS5_EEC2ERKS6_
000000000001208e W _ZNSt6vectorINSt7__cxx1112basic_stringIcSt11char_traitsIcESaIcEEESaIS5_EEC2EmRKS6_
0000000000008758 W _ZNSt6vectorINSt7__cxx1112basic_stringIcSt11char_traitsIcESaIcEEESaIS5_EEC2Ev
0000000000008a50 W _ZNSt6vectorINSt7__cxx1112basic_stringIcSt11char_traitsIcESaIcEEESaIS5_EED1Ev
0000000000008a50 W _ZNSt6vectorINSt7__cxx1112basic_stringIcSt11char_traitsIcESaIcEEESaIS5_EED2Ev
0000000000008a98 W _ZNSt6vectorINSt7__cxx1112basic_stringIcSt11char_traitsIcESaIcEEESaIS5_EEaSEOS7_
0000000000008c2c W _ZNSt6vectorINSt7__cxx1112basic_stringIcSt11char_traitsIcESaIcEEESaIS5_EEixEm
0000000000012872 W _ZNSt6vectorIiSaIiEE11_S_max_sizeERKS0_
00000000000123bf W _ZNSt6vectorIiSaIiEE17_S_check_init_lenEmRKS0_
000000000001251e W _ZNSt6vectorIiSaIiEE18_M_fill_initializeEmRKi
0000000000011f9c W _ZNSt6vectorIiSaIiEEC1EmRKiRKS0_
0000000000011f9c W _ZNSt6vectorIiSaIiEEC2EmRKiRKS0_
0000000000012022 W _ZNSt6vectorIiSaIiEED1Ev
0000000000012022 W _ZNSt6vectorIiSaIiEED2Ev
000000000001206a W _ZNSt6vectorIiSaIiEEixEm
                 U _ZNSt7__cxx1112basic_stringIcSt11char_traitsIcESaIcEE10_M_disposeEv@GLIBCXX_3.4.21
                 U _ZNSt7__cxx1112basic_stringIcSt11char_traitsIcESaIcEE11_M_capacityEm@GLIBCXX_3.4.21
                 U _ZNSt7__cxx1112basic_stringIcSt11char_traitsIcESaIcEE12_Alloc_hiderC1EPcRKS3_@GLIBCXX_3.4.21
000000000000880a W _ZNSt7__cxx1112basic_stringIcSt11char_traitsIcESaIcEE12_Alloc_hiderD1Ev
000000000000880a W _ZNSt7__cxx1112basic_stringIcSt11char_traitsIcESaIcEE12_Alloc_hiderD2Ev
                 U _ZNSt7__cxx1112basic_stringIcSt11char_traitsIcESaIcEE12_M_constructEmc@GLIBCXX_3.4.21
0000000000008d3e W _ZNSt7__cxx1112basic_stringIcSt11char_traitsIcESaIcEE12_M_constructIPKcEEvT_S8_St20forward_iterator_tag
                 U _ZNSt7__cxx1112basic_stringIcSt11char_traitsIcESaIcEE13_M_local_dataEv@GLIBCXX_3.4.21
                 U _ZNSt7__cxx1112basic_stringIcSt11char_traitsIcESaIcEE13_M_set_lengthEm@GLIBCXX_3.4.21
                 U _ZNSt7__cxx1112basic_stringIcSt11char_traitsIcESaIcEE13_S_copy_charsEPcPKcS7_@GLIBCXX_3.4.21
                 U _ZNSt7__cxx1112basic_stringIcSt11char_traitsIcESaIcEE6appendEPKc@GLIBCXX_3.4.21
                 U _ZNSt7__cxx1112basic_stringIcSt11char_traitsIcESaIcEE6appendEPKcm@GLIBCXX_3.4.21
                 U _ZNSt7__cxx1112basic_stringIcSt11char_traitsIcESaIcEE6appendERKS4_@GLIBCXX_3.4.21
                 U _ZNSt7__cxx1112basic_stringIcSt11char_traitsIcESaIcEE6insertEmRKS4_@GLIBCXX_3.4.21
                 U _ZNSt7__cxx1112basic_stringIcSt11char_traitsIcESaIcEE7_M_dataEPc@GLIBCXX_3.4.21
                 U _ZNSt7__cxx1112basic_stringIcSt11char_traitsIcESaIcEE7reserveEm@GLIBCXX_3.4.21
                 U _ZNSt7__cxx1112basic_stringIcSt11char_traitsIcESaIcEE9_M_createERmm@GLIBCXX_3.4.21
                 U _ZNSt7__cxx1112basic_stringIcSt11char_traitsIcESaIcEE9push_backEc@GLIBCXX_3.4.21
                 U _ZNSt7__cxx1112basic_stringIcSt11char_traitsIcESaIcEEC1EOS4_@GLIBCXX_3.4.21
                 U _ZNSt7__cxx1112basic_stringIcSt11char_traitsIcESaIcEEC1ERKS3_@GLIBCXX_3.4.21
                 U _ZNSt7__cxx1112basic_stringIcSt11char_traitsIcESaIcEEC1ERKS4_@GLIBCXX_3.4.21
                 U _ZNSt7__cxx1112basic_stringIcSt11char_traitsIcESaIcEEC1Ev@GLIBCXX_3.4.21
0000000000008892 W _ZNSt7__cxx1112basic_stringIcSt11char_traitsIcESaIcEEC1IS3_EEPKcRKS3_
000000000000bcbe W _ZNSt7__cxx1112basic_stringIcSt11char_traitsIcESaIcEEC1IS3_EEmcRKS3_
0000000000008892 W _ZNSt7__cxx1112basic_stringIcSt11char_traitsIcESaIcEEC2IS3_EEPKcRKS3_
000000000000bcbe W _ZNSt7__cxx1112basic_stringIcSt11char_traitsIcESaIcEEC2IS3_EEmcRKS3_
                 U _ZNSt7__cxx1112basic_stringIcSt11char_traitsIcESaIcEED1Ev@GLIBCXX_3.4.21
                 U _ZNSt7__cxx1112basic_stringIcSt11char_traitsIcESaIcEEaSEOS4_@GLIBCXX_3.4.21
                 U _ZNSt7__cxx1112basic_stringIcSt11char_traitsIcESaIcEEaSEPKc@GLIBCXX_3.4.21
                 U _ZNSt7__cxx1112basic_stringIcSt11char_traitsIcESaIcEEaSERKS4_@GLIBCXX_3.4.21
                 U _ZNSt7__cxx1112basic_stringIcSt11char_traitsIcESaIcEEixEm@GLIBCXX_3.4.21
                 U _ZNSt7__cxx1119basic_istringstreamIcSt11char_traitsIcESaIcEE3strERKNS_12basic_stringIcS2_S3_EE@GLIBCXX_3.4.21
                 U _ZNSt7__cxx1119basic_istringstreamIcSt11char_traitsIcESaIcEEC1Ev@GLIBCXX_3.4.26
                 U _ZNSt7__cxx1119basic_istringstreamIcSt11char_traitsIcESaIcEED1Ev@GLIBCXX_3.4.21
                 U _ZNSt7__cxx1119basic_ostringstreamIcSt11char_traitsIcESaIcEEC1Ev@GLIBCXX_3.4.26
                 U _ZNSt7__cxx1119basic_ostringstreamIcSt11char_traitsIcESaIcEED1Ev@GLIBCXX_3.4.21
000000000000bb23 W _ZNSt7__cxx119to_stringEi
000000000000bc32 W _ZNSt8__detail14__to_chars_lenIjEEjT_i
000000000000bd3e W _ZNSt8__detail18__to_chars_10_implIjEEvPcjT_
                 U _ZNSt8ios_base4InitC1Ev@GLIBCXX_3.4
                 U _ZNSt8ios_base4InitD1Ev@GLIBCXX_3.4
000000000000865a W _ZNSt8ios_base4setfESt13_Ios_FmtflagsS0_
0000000000012db9 W _ZSt10_ConstructINSt7__cxx1112basic_stringIcSt11char_traitsIcESaIcEEEJEEvPT_DpOT0_
000000000000931b W _ZSt10__distanceIPKcENSt15iterator_traitsIT_E15difference_typeES3_S3_St26random_access_iterator_tag
0000000000012df3 W _ZSt10__fill_n_aIPimiET_S1_T0_RKT1_St26random_access_iterator_tag
00000000000089a0 W _ZSt11__addressofINSt7__cxx1112basic_stringIcSt11char_traitsIcESaIcEEEEPT_RS6_
0000000000009b05 W _ZSt12__niter_baseIPNSt7__cxx1112basic_stringIcSt11char_traitsIcESaIcEEEET_S7_
0000000000009a51 W _ZSt12__relocate_aIPNSt7__cxx1112basic_stringIcSt11char_traitsIcESaIcEEES6_SaIS5_EET0_T_S9_S8_RT1_
0000000000009b17 W _ZSt14__relocate_a_1IPNSt7__cxx1112basic_stringIcSt11char_traitsIcESaIcEEES6_SaIS5_EET0_T_S9_S8_RT1_
0000000000009483 W _ZSt15__alloc_on_moveISaINSt7__cxx1112basic_stringIcSt11char_traitsIcESaIcEEEEEvRT_S8_
0000000000011d7b W _ZSt17__size_to_integerm
                 U _ZSt17__throw_bad_allocv@GLIBCXX_3.4
000000000000930d W _ZSt19__iterator_categoryIPKcENSt15iterator_traitsIT_E17iterator_categoryERKS3_
0000000000012de5 W _ZSt19__iterator_categoryIPiENSt15iterator_traitsIT_E17iterator_categoryERKS2_
0000000000009baa W _ZSt19__relocate_object_aINSt7__cxx1112basic_stringIcSt11char_traitsIcESaIcEEES5_SaIS5_EEvPT_PT0_RT1_
                 U _ZSt19__throw_logic_errorPKc@GLIBCXX_3.4
                 U _ZSt20__throw_length_errorPKc@GLIBCXX_3.4
0000000000012b83 W _ZSt20uninitialized_fill_nIPimiET_S1_T0_RKT1_
00000000000129cf W _ZSt24__uninitialized_fill_n_aIPimiiET_S1_T0_RKT1_RSaIT2_E
0000000000012bcb W _ZSt25__uninitialized_default_nIPNSt7__cxx1112basic_stringIcSt11char_traitsIcESaIcEEEmET_S7_T0_
0000000000012a88 W _ZSt27__uninitialized_default_n_aIPNSt7__cxx1112basic_stringIcSt11char_traitsIcESaIcEEEmS5_ET_S7_T0_RSaIT1_E
                 U _ZSt28__throw_bad_array_new_lengthv@GLIBCXX_3.4.29
00000000000086c0 W _ZSt3decRSt8ios_base
00000000000086ec W _ZSt3hexRSt8ios_base
000000000000984a W _ZSt3maxImERKT_S2_S2_
0000000000009ad6 W _ZSt3minImERKT_S2_S2_
00000000000193c0 B _ZSt4cerr@GLIBCXX_3.4
0000000000019280 B _ZSt4cout@GLIBCXX_3.4
                 U _ZSt4endlIcSt11char_traitsIcEERSt13basic_ostreamIT_T0_ES6_@GLIBCXX_3.4
0000000000008cf7 W _ZSt4moveIRNSt7__cxx1112basic_stringIcSt11char_traitsIcESaIcEEEEONSt16remove_referenceIT_E4typeEOS8_
0000000000009811 W _ZSt4moveIRSaINSt7__cxx1112basic_stringIcSt11char_traitsIcESaIcEEEEEONSt16remove_referenceIT_E4typeEOS9_
0000000000008f60 W _ZSt4moveIRSt6vectorINSt7__cxx1112basic_stringIcSt11char_traitsIcESaIcEEESaIS6_EEEONSt16remove_referenceIT_E4typeEOSB_
0000000000011ead W _ZSt5floorIiEN9__gnu_cxx11__enable_ifIXsrSt12__is_integerIT_E7__valueEdE6__typeES3_
0000000000012d71 W _ZSt6fill_nIPimiET_S1_T0_RKT1_
0000000000009c42 W _ZSt7forwardINSt7__cxx1112basic_stringIcSt11char_traitsIcESaIcEEEEOT_RNSt16remove_referenceIS6_E4typeE
00000000000094a6 W _ZSt7forwardIRKNSt7__cxx1112basic_stringIcSt11char_traitsIcESaIcEEEEOT_RNSt16remove_referenceIS8_E4typeE
                 U _ZSt7getlineIcSt11char_traitsIcESaIcEERSt13basic_istreamIT_T0_ES7_RNSt7__cxx1112basic_stringIS4_S5_T1_EES4_@GLIBCXX_3.4.21
0000000000009901 W _ZSt8_DestroyINSt7__cxx1112basic_stringIcSt11char_traitsIcESaIcEEEEvPT_
0000000000009377 W _ZSt8_DestroyIPNSt7__cxx1112basic_stringIcSt11char_traitsIcESaIcEEEEvT_S7_
0000000000008f32 W _ZSt8_DestroyIPNSt7__cxx1112basic_stringIcSt11char_traitsIcESaIcEEES5_EvT_S7_RSaIT0_E
0000000000012a04 W _ZSt8_DestroyIPiEvT_S1_
000000000001257a W _ZSt8_DestroyIPiiEvT_S1_RSaIT0_E
0000000000012e54 W _ZSt8__fill_aIPiiEvT_S1_RKT0_
0000000000008d09 W _ZSt8distanceIPKcENSt15iterator_traitsIT_E15difference_typeES3_S3_
0000000000012e86 W _ZSt9__fill_a1IPiiEN9__gnu_cxx11__enable_ifIXsrSt11__is_scalarIT0_E7__valueEvE6__typeET_S8_RKS4_
0000000000019520 b _ZStL8__ioinit
0000000000019590 b _ZStL8__ioinit
0000000000019718 b _ZStL8__ioinit
00000000000199e8 b _ZStL8__ioinit
0000000000008628 W _ZStaNRSt13_Ios_FmtflagsS_
00000000000085b9 W _ZStanSt13_Ios_FmtflagsS_
00000000000085e5 W _ZStcoSt13_Ios_Fmtflags
                 U _ZStlsISt11char_traitsIcEERSt13basic_ostreamIcT_ES5_PKc@GLIBCXX_3.4
                 U _ZStlsISt11char_traitsIcEERSt13basic_ostreamIcT_ES5_PKh@GLIBCXX_3.4
                 U _ZStlsIcSt11char_traitsIcESaIcEERSt13basic_ostreamIT_T0_ES7_RKNSt7__cxx1112basic_stringIS4_S5_T1_EE@GLIBCXX_3.4.21
00000000000085f7 W _ZStoRRSt13_Ios_FmtflagsS_
00000000000085cf W _ZStorSt13_Ios_FmtflagsS_
0000000000011deb W _ZStorSt13_Ios_OpenmodeS_
000000000000c044 W _ZStplIcSt11char_traitsIcESaIcEENSt7__cxx1112basic_stringIT_T0_T1_EEOS8_PKS5_
0000000000008955 W _ZStplIcSt11char_traitsIcESaIcEENSt7__cxx1112basic_stringIT_T0_T1_EEOS8_RKS8_
000000000000be2a W _ZStplIcSt11char_traitsIcESaIcEENSt7__cxx1112basic_stringIT_T0_T1_EEOS8_S9_
000000000000bf13 W _ZStplIcSt11char_traitsIcESaIcEENSt7__cxx1112basic_stringIT_T0_T1_EEPKS5_RKS8_
0000000000008829 W _ZStplIcSt11char_traitsIcESaIcEENSt7__cxx1112basic_stringIT_T0_T1_EERKS8_PKS5_
0000000000019980 b _ZZ11insert_portiiE1m
0000000000019720 b _ZZ15b_base64_decodeRKNSt7__cxx1112basic_stringIcSt11char_traitsIcESaIcEEEE1b
0000000000019960 b _ZZ15h_base64_decodePKhiPiE11table_built
0000000000019760 b _ZZ15h_base64_decodePKhiPiE13reverse_table
00000000000199c0 b _ZZ8pop_portiE1m
00000000000135e0 u _ZZNSt8__detail18__to_chars_10_implIjEEvPcjT_E8__digits
0000000000008568 W _ZdlPvS_
                 U _ZdlPvm@CXXABI_1.3.9
                 U _Znam@GLIBCXX_3.4
                 U _Znwm@GLIBCXX_3.4
0000000000008552 W _ZnwmPv
0000000000016c78 r __FRAME_END__
0000000000013c30 r __GNU_EH_FRAME_HDR
0000000000019208 D __TMC_END__
000000000000038c r __abi_tag
0000000000019208 B __bss_start
                 U __cxa_atexit@GLIBC_2.2.5
                 U __cxa_begin_catch@CXXABI_1.3
                 U __cxa_end_catch@CXXABI_1.3
                 w __cxa_finalize@GLIBC_2.2.5
                 U __cxa_guard_abort@CXXABI_1.3
                 U __cxa_guard_acquire@CXXABI_1.3
                 U __cxa_guard_release@CXXABI_1.3
                 U __cxa_rethrow@CXXABI_1.3
                 U __cxa_throw_bad_array_new_length@CXXABI_1.3.8
0000000000019000 D __data_start
00000000000067b0 t __do_global_dtors_aux
00000000000187b0 d __do_global_dtors_aux_fini_array_entry
0000000000019008 D __dso_handle
                 U __errno_location@GLIBC_2.2.5
0000000000018788 d __frame_dummy_init_array_entry
                 w __gmon_start__
                 U __gxx_personality_v0@CXXABI_1.3
                 U __libc_start_main@GLIBC_2.34
                 U __stack_chk_fail@GLIBC_2.4
0000000000019208 D _edata
00000000000199f0 B _end
0000000000012f88 T _fini
0000000000005000 T _init
0000000000006710 T _start
                 U abort@GLIBC_2.2.5
                 U accept@GLIBC_2.2.5
                 U atoi@GLIBC_2.2.5
                 U bind@GLIBC_2.2.5
                 U calloc@GLIBC_2.2.5
                 U clock@GLIBC_2.2.5
                 U close@GLIBC_2.2.5
00000000000194d0 b completed.0
0000000000019000 W data_start
0000000000006740 t deregister_tm_clones
                 U exit@GLIBC_2.2.5
                 U fclose@GLIBC_2.2.5
                 U fflush@GLIBC_2.2.5
                 U fopen@GLIBC_2.2.5
00000000000194e0 B for_res_packet
                 U fprintf@GLIBC_2.2.5
00000000000067f0 t frame_dummy
                 U free@GLIBC_2.2.5
                 U ftime@GLIBC_2.2.5
                 U fwrite@GLIBC_2.2.5
0000000000019660 B g_pNetwork
                 U getpid@GLIBC_2.2.5
                 U htonl@GLIBC_2.2.5
                 U htons@GLIBC_2.2.5
0000000000019604 B key_threshold
                 U listen@GLIBC_2.2.5
                 U localtime_r@GLIBC_2.2.5
0000000000012ec1 T main
                 U malloc@GLIBC_2.2.5
                 U memcmp@GLIBC_2.2.5
                 U memset@GLIBC_2.2.5
                 U mkdir@GLIBC_2.2.5
                 U mysql_close@libmysqlclient_21.0
                 U mysql_error@libmysqlclient_21.0
                 U mysql_fetch_row@libmysqlclient_21.0
                 U mysql_free_result@libmysqlclient_21.0
                 U mysql_init@libmysqlclient_21.0
                 U mysql_query@libmysqlclient_21.0
                 U mysql_real_connect@libmysqlclient_21.0
                 U mysql_use_result@libmysqlclient_21.0
                 U nanosleep@GLIBC_2.2.5
0000000000019600 B num_of_share
0000000000019020 D parser_desp
00000000000195d0 B prikeyfile_path
                 U printf@GLIBC_2.2.5
                 U pthread_create@GLIBC_2.34
                 U pthread_detach@GLIBC_2.34
                 U pthread_join@GLIBC_2.34
                 U pthread_mutex_init@GLIBC_2.2.5
                 U pthread_mutex_trylock@GLIBC_2.34
                 U pthread_mutex_unlock@GLIBC_2.2.5
                 U pthread_self@GLIBC_2.2.5
00000000000195c8 B pubkeyfile_path
                 U rand@GLIBC_2.2.5
                 U recv@GLIBC_2.2.5
0000000000006770 t register_tm_clones
0000000000019608 B salt
                 U select@GLIBC_2.2.5
                 U send@GLIBC_2.2.5
0000000000019668 B sendDataPacket
                 U setsockopt@GLIBC_2.2.5
                 U sleep@GLIBC_2.2.5
                 U socket@GLIBC_2.2.5
                 U sprintf@GLIBC_2.2.5
                 U srand@GLIBC_2.2.5
00000000000193a0 B stderr@GLIBC_2.2.5
0000000000019240 B stdout@GLIBC_2.2.5
00000000000195a8 B storage_dir
                 U strchr@GLIBC_2.2.5
                 U strcpy@GLIBC_2.2.5
                 U strcspn@GLIBC_2.2.5
                 U strdup@GLIBC_2.2.5
                 U strerror@GLIBC_2.2.5
                 U strftime@GLIBC_2.2.5
                 U strlen@GLIBC_2.2.5
                 U strspn@GLIBC_2.2.5
                 U strtol@GLIBC_2.2.5
                 U time@GLIBC_2.2.5
                 U usleep@GLIBC_2.2.5
